target datalayout = "e-m:e-p270:32:32-p271:32:32-p272:64:64-i64:64-i128:128-f80:128-n8:16:32:64-S128"
target triple = "x86_64-pc-linux-gnu"

%struct.CCFifo = type { ptr, ptr, %struct.AVRational, i32, i32, i32, i32, i32, ptr }
%struct.AVRational = type { i32, i32 }
%struct.AVFrameSideData = type { i32, ptr, i64, ptr, ptr }

@.str = private unnamed_addr constant [45 x i8] c"cc_fifo cannot transcode captions fps=%d/%d\0A\00", align 1

; Function Attrs: nounwind uwtable
define i32 @ff_ccfifo_extractbytes(ptr noundef %0, ptr noundef %1, i64 noundef %2) #0 {
  %4 = alloca i32, align 4
  %5 = alloca ptr, align 8
  %6 = alloca ptr, align 8
  %7 = alloca i64, align 8
  %8 = alloca i32, align 4
  %9 = alloca i32, align 4
  %10 = alloca i32, align 4
  %11 = alloca i8, align 1
  %12 = alloca i8, align 1
  store ptr %0, ptr %5, align 8, !tbaa !4
  store ptr %1, ptr %6, align 8, !tbaa !31
  store i64 %2, ptr %7, align 8, !tbaa !33
  call void @llvm.lifetime.start.p0(i64 4, ptr %8) #6
  %13 = load i64, ptr %7, align 8, !tbaa !33
  %14 = udiv i64 %13, 3
  %15 = trunc i64 %14 to i32
  store i32 %15, ptr %8, align 4, !tbaa !16
  %16 = load ptr, ptr %5, align 8, !tbaa !4
  %17 = getelementptr inbounds nuw %struct.CCFifo, ptr %16, i32 0, i32 6
  %18 = load i32, ptr %17, align 4, !tbaa !30
  %19 = icmp eq i32 %18, 1
  br i1 %19, label %20, label %34

20:                                               ; preds = %3
  %21 = load ptr, ptr %5, align 8, !tbaa !4
  %22 = getelementptr inbounds nuw %struct.CCFifo, ptr %21, i32 0, i32 8
  %23 = load ptr, ptr %22, align 8, !tbaa !10
  %24 = load ptr, ptr %5, align 8, !tbaa !4
  %25 = getelementptr inbounds nuw %struct.CCFifo, ptr %24, i32 0, i32 7
  %26 = load ptr, ptr %5, align 8, !tbaa !4
  %27 = getelementptr inbounds nuw %struct.CCFifo, ptr %26, i32 0, i32 2
  %28 = getelementptr inbounds nuw %struct.AVRational, ptr %27, i32 0, i32 0
  %29 = load i32, ptr %28, align 8, !tbaa !47
  %30 = load ptr, ptr %5, align 8, !tbaa !4
  %31 = getelementptr inbounds nuw %struct.CCFifo, ptr %30, i32 0, i32 2
  %32 = getelementptr inbounds nuw %struct.AVRational, ptr %31, i32 0, i32 1
  %33 = load i32, ptr %32, align 4, !tbaa !48
  call void (ptr, i32, i32, ptr, ptr, ...) @av_log_once(ptr noundef %23, i32 noundef 24, i32 noundef 48, ptr noundef %25, ptr noundef @.str, i32 noundef %29, i32 noundef %33)
  store i32 0, ptr %4, align 4
  store i32 1, ptr %9, align 4
  br label %107

34:                                               ; preds = %3
  %35 = load ptr, ptr %5, align 8, !tbaa !4
  %36 = getelementptr inbounds nuw %struct.CCFifo, ptr %35, i32 0, i32 5
  store i32 1, ptr %36, align 8, !tbaa !39
  call void @llvm.lifetime.start.p0(i64 4, ptr %10) #6
  store i32 0, ptr %10, align 4, !tbaa !16
  br label %37

37:                                               ; preds = %103, %34
  %38 = load i32, ptr %10, align 4, !tbaa !16
  %39 = load i32, ptr %8, align 4, !tbaa !16
  %40 = icmp slt i32 %38, %39
  br i1 %40, label %42, label %41

41:                                               ; preds = %37
  store i32 2, ptr %9, align 4
  call void @llvm.lifetime.end.p0(i64 4, ptr %10) #6
  br label %106

42:                                               ; preds = %37
  call void @llvm.lifetime.start.p0(i64 1, ptr %11) #6
  %43 = load ptr, ptr %6, align 8, !tbaa !31
  %44 = load i32, ptr %10, align 4, !tbaa !16
  %45 = mul nsw i32 3, %44
  %46 = sext i32 %45 to i64
  %47 = getelementptr inbounds i8, ptr %43, i64 %46
  %48 = load i8, ptr %47, align 1, !tbaa !35
  %49 = zext i8 %48 to i32
  %50 = and i32 %49, 4
  %51 = ashr i32 %50, 2
  %52 = trunc i32 %51 to i8
  store i8 %52, ptr %11, align 1, !tbaa !35
  call void @llvm.lifetime.start.p0(i64 1, ptr %12) #6
  %53 = load ptr, ptr %6, align 8, !tbaa !31
  %54 = load i32, ptr %10, align 4, !tbaa !16
  %55 = mul nsw i32 3, %54
  %56 = sext i32 %55 to i64
  %57 = getelementptr inbounds i8, ptr %53, i64 %56
  %58 = load i8, ptr %57, align 1, !tbaa !35
  %59 = zext i8 %58 to i32
  %60 = and i32 %59, 3
  %61 = trunc i32 %60 to i8
  store i8 %61, ptr %12, align 1, !tbaa !35
  %62 = load i8, ptr %12, align 1, !tbaa !35
  %63 = zext i8 %62 to i32
  %64 = icmp eq i32 %63, 0
  br i1 %64, label %69, label %65

65:                                               ; preds = %42
  %66 = load i8, ptr %12, align 1, !tbaa !35
  %67 = zext i8 %66 to i32
  %68 = icmp eq i32 %67, 1
  br i1 %68, label %69, label %79

69:                                               ; preds = %65, %42
  %70 = load ptr, ptr %5, align 8, !tbaa !4
  %71 = getelementptr inbounds nuw %struct.CCFifo, ptr %70, i32 0, i32 0
  %72 = load ptr, ptr %71, align 8, !tbaa !18
  %73 = load ptr, ptr %6, align 8, !tbaa !31
  %74 = load i32, ptr %10, align 4, !tbaa !16
  %75 = mul nsw i32 3, %74
  %76 = sext i32 %75 to i64
  %77 = getelementptr inbounds i8, ptr %73, i64 %76
  %78 = call i32 @av_fifo_write(ptr noundef %72, ptr noundef %77, i64 noundef 1)
  br label %102

79:                                               ; preds = %65
  %80 = load i8, ptr %11, align 1, !tbaa !35
  %81 = zext i8 %80 to i32
  %82 = icmp ne i32 %81, 0
  br i1 %82, label %83, label %101

83:                                               ; preds = %79
  %84 = load i8, ptr %12, align 1, !tbaa !35
  %85 = zext i8 %84 to i32
  %86 = icmp eq i32 %85, 2
  br i1 %86, label %91, label %87

87:                                               ; preds = %83
  %88 = load i8, ptr %12, align 1, !tbaa !35
  %89 = zext i8 %88 to i32
  %90 = icmp eq i32 %89, 3
  br i1 %90, label %91, label %101

91:                                               ; preds = %87, %83
  %92 = load ptr, ptr %5, align 8, !tbaa !4
  %93 = getelementptr inbounds nuw %struct.CCFifo, ptr %92, i32 0, i32 1
  %94 = load ptr, ptr %93, align 8, !tbaa !17
  %95 = load ptr, ptr %6, align 8, !tbaa !31
  %96 = load i32, ptr %10, align 4, !tbaa !16
  %97 = mul nsw i32 3, %96
  %98 = sext i32 %97 to i64
  %99 = getelementptr inbounds i8, ptr %95, i64 %98
  %100 = call i32 @av_fifo_write(ptr noundef %94, ptr noundef %99, i64 noundef 1)
  br label %101

101:                                              ; preds = %91, %87, %79
  br label %102

102:                                              ; preds = %101, %69
  call void @llvm.lifetime.end.p0(i64 1, ptr %12) #6
  call void @llvm.lifetime.end.p0(i64 1, ptr %11) #6
  br label %103

103:                                              ; preds = %102
  %104 = load i32, ptr %10, align 4, !tbaa !16
  %105 = add nsw i32 %104, 1
  store i32 %105, ptr %10, align 4, !tbaa !16
  br label %37, !llvm.loop !49

106:                                              ; preds = %41
  store i32 0, ptr %4, align 4
  store i32 1, ptr %9, align 4
  br label %107

107:                                              ; preds = %106, %20
  call void @llvm.lifetime.end.p0(i64 4, ptr %8) #6
  %108 = load i32, ptr %4, align 4
  ret i32 %108
}

; Function Attrs: nounwind uwtable
define i32 @ff_ccfifo_extract(ptr noundef %0, ptr noundef %1) #0 {
  %3 = alloca ptr, align 8
  %4 = alloca ptr, align 8
  %5 = alloca ptr, align 8
  store ptr %0, ptr %3, align 8, !tbaa !4
  store ptr %1, ptr %4, align 8, !tbaa !37
  call void @llvm.lifetime.start.p0(i64 8, ptr %5) #6
  %6 = load ptr, ptr %4, align 8, !tbaa !37
  %7 = call ptr @av_frame_get_side_data(ptr noundef %6, i32 noundef 1)
  store ptr %7, ptr %5, align 8, !tbaa !40
  %8 = load ptr, ptr %5, align 8, !tbaa !40
  %9 = icmp ne ptr %8, null
  br i1 %9, label %10, label %26

10:                                               ; preds = %2
  %11 = load ptr, ptr %3, align 8, !tbaa !4
  %12 = load ptr, ptr %5, align 8, !tbaa !40
  %13 = getelementptr inbounds nuw %struct.AVFrameSideData, ptr %12, i32 0, i32 1
  %14 = load ptr, ptr %13, align 8, !tbaa !42
  %15 = load ptr, ptr %5, align 8, !tbaa !40
  %16 = getelementptr inbounds nuw %struct.AVFrameSideData, ptr %15, i32 0, i32 2
  %17 = load i64, ptr %16, align 8, !tbaa !46
  %18 = call i32 @ff_ccfifo_extractbytes(ptr noundef %11, ptr noundef %14, i64 noundef %17)
  %19 = load ptr, ptr %3, align 8, !tbaa !4
  %20 = getelementptr inbounds nuw %struct.CCFifo, ptr %19, i32 0, i32 6
  %21 = load i32, ptr %20, align 4, !tbaa !30
  %22 = icmp ne i32 %21, 0
  br i1 %22, label %25, label %23

23:                                               ; preds = %10
  %24 = load ptr, ptr %4, align 8, !tbaa !37
  call void @av_frame_remove_side_data(ptr noundef %24, i32 noundef 1)
  br label %25

25:                                               ; preds = %23, %10
  br label %26

26:                                               ; preds = %25, %2
  call void @llvm.lifetime.end.p0(i64 8, ptr %5) #6
  ret i32 0
}