; Function Attrs: nounwind uwtable
define noundef i32 @ff_ccfifo_extract(ptr noundef %0, ptr noundef %1) local_unnamed_addr #0 {
  %3 = tail call ptr @av_frame_get_side_data(ptr noundef %1, i32 noundef 1) #3
  %.not = icmp eq ptr %3, null
  br i1 %.not, label %37, label %4

4:                                                ; preds = %2
  %5 = getelementptr inbounds nuw i8, ptr %3, i64 8
  %6 = load ptr, ptr %5, align 8, !tbaa !28
  %7 = getelementptr inbounds nuw i8, ptr %3, i64 16
  %8 = load i64, ptr %7, align 8, !tbaa !34
  %9 = udiv i64 %8, 3
  %10 = getelementptr inbounds nuw i8, ptr %0, i64 36
  %11 = load i32, ptr %10, align 4, !tbaa !24
  %12 = icmp eq i32 %11, 1
  br i1 %12, label %13, label %21

13:                                               ; preds = %4
  %14 = getelementptr inbounds nuw i8, ptr %0, i64 48
  %15 = load ptr, ptr %14, align 8, !tbaa !4
  %16 = getelementptr inbounds nuw i8, ptr %0, i64 40
  %17 = getelementptr inbounds nuw i8, ptr %0, i64 16
  %18 = load i32, ptr %17, align 8, !tbaa !35
  %19 = getelementptr inbounds nuw i8, ptr %0, i64 20
  %20 = load i32, ptr %19, align 4, !tbaa !36
  tail call void (ptr, i32, i32, ptr, ptr, ...) @av_log_once(ptr noundef %15, i32 noundef 24, i32 noundef 48, ptr noundef nonnull %16, ptr noundef nonnull @.str, i32 noundef %18, i32 noundef %20) #3
  br label %ff_ccfifo_extractbytes.exit

21:                                               ; preds = %4
  %22 = trunc i64 %9 to i32
  %23 = getelementptr inbounds nuw i8, ptr %0, i64 32
  store i32 1, ptr %23, align 8, !tbaa !27
  %24 = icmp sgt i32 %22, 0
  br i1 %24, label %.lr.ph.i, label %ff_ccfifo_extractbytes.exit

.lr.ph.i:                                         ; preds = %21
  %25 = getelementptr inbounds nuw i8, ptr %0, i64 8
  %wide.trip.count.i = and i64 %9, 2147483647
  br label %26

26:                                               ; preds = %34, %.lr.ph.i
  %indvars.iv.i = phi i64 [ 0, %.lr.ph.i ], [ %indvars.iv.next.i, %34 ]
  %27 = mul nuw nsw i64 %indvars.iv.i, 3
  %28 = getelementptr inbounds nuw i8, ptr %6, i64 %27
  %29 = load i8, ptr %28, align 1, !tbaa !25
  %30 = and i8 %29, 2
  %or.cond.not.not.i = icmp eq i8 %30, 0
  br i1 %or.cond.not.not.i, label %.sink.split.i, label %31

31:                                               ; preds = %26
  %32 = and i8 %29, 4
  %.not.i = icmp eq i8 %32, 0
  br i1 %.not.i, label %34, label %.sink.split.i

.sink.split.i:                                    ; preds = %31, %26
  %.sink.in.i = phi ptr [ %0, %26 ], [ %25, %31 ]
  %.sink.i = load ptr, ptr %.sink.in.i, align 8, !tbaa !37
  %33 = tail call i32 @av_fifo_write(ptr noundef %.sink.i, ptr noundef nonnull %28, i64 noundef 1) #3
  br label %34

34:                                               ; preds = %.sink.split.i, %31
  %indvars.iv.next.i = add nuw nsw i64 %indvars.iv.i, 1
  %exitcond.not.i = icmp eq i64 %indvars.iv.next.i, %wide.trip.count.i
  br i1 %exitcond.not.i, label %ff_ccfifo_extractbytes.exit, label %26, !llvm.loop !38

ff_ccfifo_extractbytes.exit:                      ; preds = %34, %13, %21
  %35 = load i32, ptr %10, align 4, !tbaa !24
  %.not7 = icmp eq i32 %35, 0
  br i1 %.not7, label %36, label %37

36:                                               ; preds = %ff_ccfifo_extractbytes.exit
  tail call void @av_frame_remove_side_data(ptr noundef %1, i32 noundef 1) #3
  br label %37

37:                                               ; preds = %ff_ccfifo_extractbytes.exit, %36, %2
  ret i32 0
}